; Function Attrs: mustprogress nofree norecurse nosync nounwind willreturn memory(read, inaccessiblemem: none) uwtable
define noundef i64 @_ZNK12colvarmodule21num_variables_featureEi(ptr nocapture noundef nonnull readonly align 8 dereferenceable(616) %0, i32 noundef %1) local_unnamed_addr #13 align 2 {
  %3 = getelementptr inbounds i8, ptr %0, i64 40
  %4 = load ptr, ptr %3, align 8
  %5 = getelementptr inbounds i8, ptr %0, i64 48
  %6 = load ptr, ptr %5, align 8
  %.not6 = icmp eq ptr %4, %6
  br i1 %.not6, label %._crit_edge, label %.lr.ph

.lr.ph:                                           ; preds = %2
  %7 = sext i32 %1 to i64
  br label %8

8:                                                ; preds = %.lr.ph, %8
  %.08 = phi i64 [ 0, %.lr.ph ], [ %spec.select, %8 ]
  %.sroa.03.07 = phi ptr [ %4, %.lr.ph ], [ %16, %8 ]
  %9 = load ptr, ptr %.sroa.03.07, align 8
  %10 = getelementptr inbounds i8, ptr %9, i64 368
  %11 = load ptr, ptr %10, align 8
  %12 = getelementptr inbounds %"struct.colvardeps::feature_state", ptr %11, i64 %7, i32 1
  %13 = load i8, ptr %12, align 1
  %14 = and i8 %13, 1
  %15 = zext nneg i8 %14 to i64
  %spec.select = add i64 %.08, %15
  %16 = getelementptr inbounds i8, ptr %.sroa.03.07, i64 8
  %.not = icmp eq ptr %16, %6
  br i1 %.not, label %._crit_edge, label %8, !llvm.loop !98

._crit_edge:                                      ; preds = %8, %2
  %.0.lcssa = phi i64 [ 0, %2 ], [ %spec.select, %8 ]
  ret i64 %.0.lcssa
}